Certificate:
    Data:
        Version: 3 (0x2)
        Serial Number: 2 (0x2)
        Signature Algorithm: sha1WithRSAEncryption
        Issuer: O=Grid, CN=Globus Test CA
        Validity
            Not Before: May 28 16:44:39 2015 GMT
            Not After : May 23 16:44:39 2035 GMT
        Subject: O=Grid, OU=Globus Test CA, CN=test
        Subject Public Key Info:
            Public Key Algorithm: rsaEncryption
            RSA Public Key: (2048 bit)
                Modulus (2048 bit):
                    00:ba:e3:11:13:3a:4b:99:5f:c3:46:ea:7d:90:46:
                    35:67:b5:b1:3c:ad:78:83:bd:37:c1:58:9d:88:c9:
                    f6:c1:9c:50:76:9b:fa:e3:69:f0:6f:0f:34:9d:d4:
                    44:94:32:8a:d4:12:2e:7b:6d:d6:72:14:ff:57:ea:
                    bd:0d:36:fa:fc:5b:d6:55:3b:ea:a8:4c:d7:36:be:
                    f0:11:0b:55:2a:81:54:a3:8e:97:86:85:44:46:68:
                    b6:ce:7e:e2:5e:6e:9e:fe:9a:0f:b4:0d:85:af:ff:
                    04:55:0a:dd:6e:0f:bc:bb:36:dc:ed:03:24:70:94:
                    89:9e:33:22:52:1e:37:3a:4d:82:4b:7b:b0:04:b3:
                    37:99:dd:8e:ba:91:83:a6:ba:77:2d:89:79:63:1b:
                    b1:38:f4:3f:d2:ec:d6:93:a8:de:71:92:55:b2:bb:
                    89:e8:f0:5d:3a:c0:f7:24:1d:91:74:f3:3d:17:a2:
                    19:1f:32:ab:ed:74:f5:56:c8:b9:16:60:9e:ed:17:
                    d7:09:4e:d0:28:a0:d9:44:f2:e2:16:b6:ca:84:b1:
                    81:78:23:f3:0c:d0:49:c1:3f:95:17:62:5f:1c:c6:
                    43:fd:e5:01:57:8d:c3:3b:59:20:ba:6b:50:4d:2b:
                    23:28:fa:43:13:5b:c2:96:b7:33:58:3a:a9:90:ee:
                    13:25
                Exponent: 65537 (0x10001)
        X509v3 extensions:
            Netscape Cert Type: 
                SSL Client, SSL Server, S/MIME, Object Signing
    Signature Algorithm: sha1WithRSAEncryption
        af:2d:45:cd:b3:76:f4:39:97:c6:7b:e3:58:88:80:76:2a:1f:
        f0:b6:ec:c3:4f:c3:84:db:4f:b0:62:10:34:56:bc:5a:c9:49:
        aa:b1:09:7b:f8:d2:a5:c9:5d:88:3c:77:3a:ad:9e:cb:8f:6c:
        35:79:31:cf:e6:66:7a:e0:0f:c7:2b:1d:6e:f6:f2:4d:7a:4e:
        68:85:82:b0:3e:cb:fa:0e:7b:8f:73:46:88:c3:1e:14:4c:df:
        ce:6a:3c:a7:2b:0a:25:a9:89:74:a2:51:94:48:76:2c:e5:c2:
        55:cc:5e:5f:14:cc:42:32:2c:75:47:a0:9f:99:55:74:c7:94:
        cc:7c
-----BEGIN CERTIFICATE-----
MIICbjCCAdegAwIBAgIBAjANBgkqhkiG9w0BAQUFADAoMQ0wCwYDVQQKDARHcmlk
MRcwFQYDVQQDDA5HbG9idXMgVGVzdCBDQTAeFw0xNTA1MjgxNjQ0MzlaFw0zNTA1
MjMxNjQ0MzlaMDcxDTALBgNVBAoMBEdyaWQxFzAVBgNVBAsMDkdsb2J1cyBUZXN0
IENBMQ0wCwYDVQQDDAR0ZXN0MIIBIjANBgkqhkiG9w0BAQEFAAOCAQ8AMIIBCgKC
AQEAuuMREzpLmV/DRup9kEY1Z7WxPK14g703wVidiMn2wZxQdpv642nwbw80ndRE
lDKK1BIue23WchT/V+q9DTb6/FvWVTvqqEzXNr7wEQtVKoFUo46XhoVERmi2zn7i
Xm6e/poPtA2Fr/8EVQrdbg+8uzbc7QMkcJSJnjMiUh43Ok2CS3uwBLM3md2OupGD
prp3LYl5YxuxOPQ/0uzWk6jecZJVsruJ6PBdOsD3JB2RdPM9F6IZHzKr7XT1Vsi5
FmCe7RfXCU7QKKDZRPLiFrbKhLGBeCPzDNBJwT+VF2JfHMZD/eUBV43DO1kgumtQ
TSsjKPpDE1vClrczWDqpkO4TJQIDAQABoxUwEzARBglghkgBhvhCAQEEBAMCBPAw
DQYJKoZIhvcNAQEFBQADgYEAry1FzbN29DmXxnvjWIiAdiof8Lbsw0/DhNtPsGIQ
NFa8WslJqrEJe/jSpcldiDx3Oq2ey49sNXkxz+ZmeuAPxysdbvbyTXpOaIWCsD7L
+g57j3NGiMMeFEzfzmo8pysKJamJdKJRlEh2LOXCVcxeXxTMQjIsdUegn5lVdMeU
zHw=
-----END CERTIFICATE-----
