Certificate:
    Data:
        Version: 3 (0x2)
        Serial Number: 3 (0x3)
        Signature Algorithm: md5WithRSAEncryption
        Issuer: O=Grid, OU=MyProxy, CN=MyProxy Test CA
        Validity
            Not Before: Aug 30 23:31:51 2007 GMT
            Not After : Aug 28 23:31:51 2012 GMT
        Subject: O=Grid, OU=MyProxy, OU=ncsa.uiuc.edu, CN=Test User
        Subject Public Key Info:
            Public Key Algorithm: rsaEncryption
            RSA Public Key: (1024 bit)
                Modulus (1024 bit):
                    00:b8:de:b2:44:17:be:1e:b9:e8:5a:d7:1e:e1:63:
                    a8:7f:78:91:ea:59:3b:e9:c4:ba:76:f9:16:4d:f9:
                    37:41:eb:41:2e:4e:d6:ba:db:05:4c:f6:61:d3:e4:
                    f3:bc:50:8e:cf:f3:7f:7d:29:84:ac:e3:1d:d0:a4:
                    ab:9e:98:ab:91:21:17:13:07:1b:aa:a7:e7:f0:d7:
                    0d:e5:d3:53:b3:23:ec:e3:16:84:a4:e5:67:c4:c2:
                    17:e2:5f:54:d2:2c:0f:2d:1d:dd:a5:a1:81:60:ba:
                    01:35:ed:fc:be:e7:a7:50:a5:66:b4:06:5b:18:fd:
                    c0:9b:83:36:40:a2:85:11:e5
                Exponent: 65537 (0x10001)
        X509v3 extensions:
            Netscape Cert Type: 
                SSL Client, SSL Server, S/MIME, Object Signing
    Signature Algorithm: md5WithRSAEncryption
        57:f1:b8:bd:48:69:76:45:a8:be:5c:f7:a0:c9:39:2d:c1:ce:
        50:17:02:73:4c:1e:2b:61:a7:ba:cc:48:a8:9d:16:86:47:fc:
        69:d8:11:6c:76:7b:35:cd:86:14:69:d0:07:1e:b9:60:27:29:
        32:38:28:f8:ac:9f:df:d2:29:82:fa:da:0b:57:ee:78:24:3b:
        38:b2:16:70:32:bf:a5:1f:f1:37:20:06:3a:80:b8:23:2b:3c:
        42:d4:ff:44:78:14:b3:8d:52:4c:7b:40:dd:25:34:a7:f8:d2:
        75:b6:60:9a:5c:1d:e5:97:60:2f:9b:09:c4:29:c8:5e:df:d3:
        eb:93
-----BEGIN CERTIFICATE-----
MIICEzCCAXygAwIBAgIBAzANBgkqhkiG9w0BAQQFADA7MQ0wCwYDVQQKEwRHcmlk
MRAwDgYDVQQLEwdNeVByb3h5MRgwFgYDVQQDEw9NeVByb3h5IFRlc3QgQ0EwHhcN
MDcwODMwMjMzMTUxWhcNMTIwODI4MjMzMTUxWjBNMQ0wCwYDVQQKEwRHcmlkMRAw
DgYDVQQLEwdNeVByb3h5MRYwFAYDVQQLEw1uY3NhLnVpdWMuZWR1MRIwEAYDVQQD
EwlUZXN0IFVzZXIwgZ8wDQYJKoZIhvcNAQEBBQADgY0AMIGJAoGBALjeskQXvh65
6FrXHuFjqH94kepZO+nEunb5Fk35N0HrQS5O1rrbBUz2YdPk87xQjs/zf30phKzj
HdCkq56Yq5EhFxMHG6qn5/DXDeXTU7Mj7OMWhKTlZ8TCF+JfVNIsDy0d3aWhgWC6
ATXt/L7np1ClZrQGWxj9wJuDNkCihRHlAgMBAAGjFTATMBEGCWCGSAGG+EIBAQQE
AwIE8DANBgkqhkiG9w0BAQQFAAOBgQBX8bi9SGl2Rai+XPegyTktwc5QFwJzTB4r
Yae6zEionRaGR/xp2BFsdns1zYYUadAHHrlgJykyOCj4rJ/f0imC+toLV+54JDs4
shZwMr+lH/E3IAY6gLgjKzxC1P9EeBSzjVJMe0DdJTSn+NJ1tmCaXB3ll2AvmwnE
Kche39Prkw==
-----END CERTIFICATE-----
