Certificate:
    Data:
        Version: 3 (0x2)
        Serial Number: 2 (0x2)
        Signature Algorithm: md5WithRSAEncryption
        Issuer: O=Grid, OU=MyProxy, CN=MyProxy Test CA
        Validity
            Not Before: Aug 25 02:42:02 2006 GMT
            Not After : Aug 25 02:42:02 2007 GMT
        Subject: O=Grid, OU=MyProxy, OU=ncsa.uiuc.edu, CN=Test User
        Subject Public Key Info:
            Public Key Algorithm: rsaEncryption
            RSA Public Key: (1024 bit)
                Modulus (1024 bit):
                    00:a3:0d:0b:65:bd:82:67:84:f3:b0:cd:8f:33:e7:
                    94:16:00:aa:d5:14:e8:eb:83:24:40:31:bb:d3:26:
                    e1:97:ab:5a:14:9c:9c:09:7c:8c:44:cb:0e:db:5e:
                    79:31:9c:85:70:a4:32:8b:ff:5b:c5:15:ad:92:1e:
                    db:27:f1:fe:36:1c:d1:f4:b9:74:ed:84:d0:b6:f5:
                    54:f5:9d:2e:10:47:4f:d1:78:cd:f4:8f:e2:ce:b5:
                    11:bf:0e:90:78:cc:f8:62:d7:c0:8b:18:99:0d:85:
                    1c:22:1c:ef:f1:e7:61:e5:b5:bc:64:c0:ca:db:26:
                    ce:61:5e:33:e0:58:76:d2:0f
                Exponent: 65537 (0x10001)
        X509v3 extensions:
            Netscape Cert Type: 
                SSL Client, SSL Server, S/MIME, Object Signing
    Signature Algorithm: md5WithRSAEncryption
        6f:4c:10:96:eb:25:0a:10:0c:7e:1c:f9:ed:e1:1b:88:14:f1:
        57:f3:94:d2:00:b7:d9:da:01:e4:e3:2a:40:32:b9:04:b2:f8:
        78:4b:c1:47:1d:f3:68:01:bc:41:07:35:74:88:d3:52:9c:7b:
        98:74:75:f4:87:e2:4d:5a:9f:94:c0:2b:1e:14:8c:20:65:1a:
        ca:21:e6:7b:59:00:f9:52:94:88:09:92:ca:1e:af:37:f1:e7:
        aa:3e:65:3e:a0:5a:f0:27:63:b3:be:11:32:cf:69:32:d8:7f:
        66:ff:ae:09:7b:81:e7:23:a0:67:e5:fd:df:9e:92:d9:54:27:
        fa:86
-----BEGIN CERTIFICATE-----
MIICEzCCAXygAwIBAgIBAjANBgkqhkiG9w0BAQQFADA7MQ0wCwYDVQQKEwRHcmlk
MRAwDgYDVQQLEwdNeVByb3h5MRgwFgYDVQQDEw9NeVByb3h5IFRlc3QgQ0EwHhcN
MDYwODI1MDI0MjAyWhcNMDcwODI1MDI0MjAyWjBNMQ0wCwYDVQQKEwRHcmlkMRAw
DgYDVQQLEwdNeVByb3h5MRYwFAYDVQQLEw1uY3NhLnVpdWMuZWR1MRIwEAYDVQQD
EwlUZXN0IFVzZXIwgZ8wDQYJKoZIhvcNAQEBBQADgY0AMIGJAoGBAKMNC2W9gmeE
87DNjzPnlBYAqtUU6OuDJEAxu9Mm4ZerWhScnAl8jETLDtteeTGchXCkMov/W8UV
rZIe2yfx/jYc0fS5dO2E0Lb1VPWdLhBHT9F4zfSP4s61Eb8OkHjM+GLXwIsYmQ2F
HCIc7/HnYeW1vGTAytsmzmFeM+BYdtIPAgMBAAGjFTATMBEGCWCGSAGG+EIBAQQE
AwIE8DANBgkqhkiG9w0BAQQFAAOBgQBvTBCW6yUKEAx+HPnt4RuIFPFX85TSALfZ
2gHk4ypAMrkEsvh4S8FHHfNoAbxBBzV0iNNSnHuYdHX0h+JNWp+UwCseFIwgZRrK
IeZ7WQD5UpSICZLKHq838eeqPmU+oFrwJ2OzvhEyz2ky2H9m/64Je4HnI6Bn5f3f
npLZVCf6hg==
-----END CERTIFICATE-----
