Certificate:
    Data:
        Version: 3 (0x2)
        Serial Number: 7 (0x7)
        Signature Algorithm: md5WithRSAEncryption
        Issuer: O=Grid, OU=GlobusTest, OU=simpleCA-mactop.local, CN=Globus Simple CA
        Validity
            Not Before: Aug 22 17:48:41 2008 GMT
            Not After : Aug 22 17:48:41 2009 GMT
        Subject: O=Grid, OU=GlobusTest, OU=simpleCA-mactop.local, CN=host/test.example.org
        Subject Public Key Info:
            Public Key Algorithm: rsaEncryption
            RSA Public Key: (1024 bit)
                Modulus (1024 bit):
                    00:a1:5e:d2:16:cb:7c:0a:42:ae:9f:84:ab:20:ed:
                    f5:75:bd:59:bf:6f:ac:06:2e:71:40:6d:e9:0c:d9:
                    19:d6:e0:53:04:a3:dd:16:e2:7f:26:80:67:62:3f:
                    be:d3:85:0a:dd:38:d2:76:48:0d:74:0c:66:04:13:
                    b5:44:71:26:47:57:14:44:a9:38:12:ed:0b:4a:d3:
                    d3:e9:93:c2:fa:4c:c9:c2:8c:bc:18:2b:16:7e:d3:
                    e3:19:5b:5c:17:8f:d9:0e:ad:15:e7:21:4f:27:da:
                    05:e0:8d:75:34:c0:a1:98:dd:0c:63:a0:54:5f:92:
                    0d:7a:a1:42:59:a0:c7:88:47
                Exponent: 65537 (0x10001)
        X509v3 extensions:
            Netscape Cert Type: 
                SSL Client, SSL Server, S/MIME, Object Signing
            X509v3 Subject Alternative Name: 
                IP Address:192.168.1.1
            X509v3 Basic Constraints: critical
                CA:FALSE
    Signature Algorithm: md5WithRSAEncryption
        8e:ce:f8:54:69:d1:3b:ef:df:dd:ea:b6:55:92:01:d6:0f:d8:
        7f:ba:7b:c4:cd:8b:fc:f7:20:70:ed:94:20:f3:b8:fe:f8:86:
        e5:de:98:0d:9a:f3:61:a6:ae:f5:c8:22:61:59:24:dd:35:87:
        d8:5b:42:c7:2e:e0:7e:dd:44:66:d4:65:45:bd:1b:2d:c5:f3:
        a2:d8:2e:fd:4b:d6:11:8e:80:68:ba:7b:16:d6:b3:62:6a:b1:
        3f:9e:ca:e0:ab:5f:4c:00:d8:18:e0:a3:76:1b:91:2d:d9:4b:
        f7:ed:f0:09:1a:78:46:fc:35:c8:9d:08:1f:52:e2:36:6b:19:
        0d:bc
-----BEGIN CERTIFICATE-----
MIICbTCCAdagAwIBAgIBBzANBgkqhkiG9w0BAQQFADBfMQ0wCwYDVQQKEwRHcmlk
MRMwEQYDVQQLEwpHbG9idXNUZXN0MR4wHAYDVQQLExVzaW1wbGVDQS1tYWN0b3Au
bG9jYWwxGTAXBgNVBAMTEEdsb2J1cyBTaW1wbGUgQ0EwHhcNMDgwODIyMTc0ODQx
WhcNMDkwODIyMTc0ODQxWjBkMQ0wCwYDVQQKEwRHcmlkMRMwEQYDVQQLEwpHbG9i
dXNUZXN0MR4wHAYDVQQLExVzaW1wbGVDQS1tYWN0b3AubG9jYWwxHjAcBgNVBAMT
FWhvc3QvdGVzdC5leGFtcGxlLm9yZzCBnzANBgkqhkiG9w0BAQEFAAOBjQAwgYkC
gYEAoV7SFst8CkKun4SrIO31db1Zv2+sBi5xQG3pDNkZ1uBTBKPdFuJ/JoBnYj++
04UK3TjSdkgNdAxmBBO1RHEmR1cURKk4Eu0LStPT6ZPC+kzJwoy8GCsWftPjGVtc
F4/ZDq0V5yFPJ9oF4I11NMChmN0MY6BUX5INeqFCWaDHiEcCAwEAAaM0MDIwEQYJ
YIZIAYb4QgEBBAQDAgTwMA8GA1UdEQQIMAaHBMCoAQEwDAYDVR0TAQH/BAIwADAN
BgkqhkiG9w0BAQQFAAOBgQCOzvhUadE779/d6rZVkgHWD9h/unvEzYv89yBw7ZQg
87j++Ibl3pgNmvNhpq71yCJhWSTdNYfYW0LHLuB+3URm1GVFvRstxfOi2C79S9YR
joBounsW1rNiarE/nsrgq19MANgY4KN2G5Et2Uv37fAJGnhG/DXInQgfUuI2axkN
vA==
-----END CERTIFICATE-----
