Certificate:
    Data:
        Version: 3 (0x2)
        Serial Number: 8 (0x8)
        Signature Algorithm: md5WithRSAEncryption
        Issuer: O=Grid, OU=GlobusTest, OU=simpleCA-mactop.local, CN=Globus Simple CA
        Validity
            Not Before: Aug 22 17:49:14 2008 GMT
            Not After : Aug 22 17:49:14 2009 GMT
        Subject: O=Grid, OU=GlobusTest, OU=simpleCA-mactop.local, CN=host/test.example.org
        Subject Public Key Info:
            Public Key Algorithm: rsaEncryption
            RSA Public Key: (1024 bit)
                Modulus (1024 bit):
                    00:d0:05:23:c5:5a:a7:eb:89:17:d6:31:14:64:d6:
                    48:85:35:90:2f:27:69:d3:9a:ef:b7:f8:26:1d:e4:
                    01:02:5d:52:23:39:36:4b:80:68:25:d4:6d:e6:d5:
                    20:40:bf:bf:12:c3:f0:07:64:26:18:4e:48:81:fd:
                    c5:75:99:a4:ef:06:a3:24:f5:52:f2:90:19:56:59:
                    55:9e:61:d9:27:61:fa:52:db:5f:ae:57:82:58:18:
                    b3:02:57:6f:64:93:a0:b4:47:ac:88:55:23:de:fa:
                    a1:2e:96:03:6e:de:ad:7e:e6:e5:01:22:de:f5:4a:
                    10:91:ed:f5:81:a3:c1:5e:c1
                Exponent: 65537 (0x10001)
        X509v3 extensions:
            Netscape Cert Type: 
                SSL Client, SSL Server, S/MIME, Object Signing
            X509v3 Subject Alternative Name: 
                IP Address:192.168.1.1, IP Address:192.168.1.2
            X509v3 Basic Constraints: critical
                CA:FALSE
    Signature Algorithm: md5WithRSAEncryption
        50:aa:8e:1a:d1:8a:6e:fb:d5:a7:75:90:04:09:a2:5f:8a:59:
        ae:ef:b4:5c:bd:24:5b:10:76:22:a7:fc:5f:06:ab:27:c8:dc:
        49:bc:8b:10:7f:bf:fe:43:47:f9:28:82:57:2d:ca:92:15:e6:
        82:8e:ab:d3:d7:c9:69:9c:9a:a2:51:00:e2:7d:e5:0f:40:0a:
        ad:d6:62:31:6a:69:9b:60:b0:fa:5d:c9:07:eb:5d:6d:cc:6c:
        7a:24:ba:12:e2:b2:68:17:1c:3d:b8:a5:e3:ed:14:7b:19:f3:
        9b:50:65:e8:29:c5:88:67:e1:17:56:cb:73:cc:87:da:7f:15:
        0d:e4
-----BEGIN CERTIFICATE-----
MIICczCCAdygAwIBAgIBCDANBgkqhkiG9w0BAQQFADBfMQ0wCwYDVQQKEwRHcmlk
MRMwEQYDVQQLEwpHbG9idXNUZXN0MR4wHAYDVQQLExVzaW1wbGVDQS1tYWN0b3Au
bG9jYWwxGTAXBgNVBAMTEEdsb2J1cyBTaW1wbGUgQ0EwHhcNMDgwODIyMTc0OTE0
WhcNMDkwODIyMTc0OTE0WjBkMQ0wCwYDVQQKEwRHcmlkMRMwEQYDVQQLEwpHbG9i
dXNUZXN0MR4wHAYDVQQLExVzaW1wbGVDQS1tYWN0b3AubG9jYWwxHjAcBgNVBAMT
FWhvc3QvdGVzdC5leGFtcGxlLm9yZzCBnzANBgkqhkiG9w0BAQEFAAOBjQAwgYkC
gYEA0AUjxVqn64kX1jEUZNZIhTWQLydp05rvt/gmHeQBAl1SIzk2S4BoJdRt5tUg
QL+/EsPwB2QmGE5Igf3FdZmk7wajJPVS8pAZVllVnmHZJ2H6UttfrleCWBizAldv
ZJOgtEesiFUj3vqhLpYDbt6tfublASLe9UoQke31gaPBXsECAwEAAaM6MDgwEQYJ
YIZIAYb4QgEBBAQDAgTwMBUGA1UdEQQOMAyHBMCoAQGHBMCoAQIwDAYDVR0TAQH/
BAIwADANBgkqhkiG9w0BAQQFAAOBgQBQqo4a0Ypu+9WndZAECaJfilmu77RcvSRb
EHYip/xfBqsnyNxJvIsQf7/+Q0f5KIJXLcqSFeaCjqvT18lpnJqiUQDifeUPQAqt
1mIxammbYLD6XckH611tzGx6JLoS4rJoFxw9uKXj7RR7GfObUGXoKcWIZ+EXVstz
zIfafxUN5A==
-----END CERTIFICATE-----
