Certificate:
    Data:
        Version: 3 (0x2)
        Serial Number: 6 (0x6)
        Signature Algorithm: md5WithRSAEncryption
        Issuer: O=Grid, OU=GlobusTest, OU=simpleCA-mactop.local, CN=Globus Simple CA
        Validity
            Not Before: Aug 22 17:48:14 2008 GMT
            Not After : Aug 22 17:48:14 2009 GMT
        Subject: O=Grid, OU=GlobusTest, OU=simpleCA-mactop.local, CN=host/test.example.org
        Subject Public Key Info:
            Public Key Algorithm: rsaEncryption
            RSA Public Key: (1024 bit)
                Modulus (1024 bit):
                    00:d0:7a:43:6f:13:8d:4b:5a:fe:50:4c:6b:26:b8:
                    09:58:ae:38:5b:c6:f5:c1:70:f5:20:72:e5:bc:16:
                    4e:0d:ad:69:95:f8:f5:87:51:f8:36:2d:cb:73:80:
                    55:da:b3:37:22:ca:99:22:5f:ea:18:d3:2a:e5:6a:
                    e9:bf:c3:34:1c:fb:7c:17:73:5c:c3:af:0a:c1:f4:
                    bf:75:f9:4e:ef:22:45:7c:d9:7a:8d:3a:2b:d6:93:
                    5e:13:7b:76:6d:ef:5a:c2:61:a2:f1:f5:27:d5:3f:
                    c5:b6:78:91:0a:30:50:45:d6:32:19:2f:b0:2a:d9:
                    3d:5b:96:9b:7c:88:7a:15:0b
                Exponent: 65537 (0x10001)
        X509v3 extensions:
            Netscape Cert Type: 
                SSL Client, SSL Server, S/MIME, Object Signing
            X509v3 Subject Alternative Name: 
                DNS:*.example.org
            X509v3 Basic Constraints: critical
                CA:FALSE
    Signature Algorithm: md5WithRSAEncryption
        5c:a5:d0:60:b4:b2:68:ba:aa:7b:5b:f4:82:a9:41:1b:2c:b4:
        c4:a6:4a:fe:50:57:9c:19:19:1e:da:cf:6c:83:f9:80:a5:46:
        10:d5:ab:00:3d:8e:b6:98:c6:58:7d:d3:32:9b:af:bf:7e:25:
        65:e4:b1:11:59:65:c7:71:b3:e3:b1:35:53:f0:5f:f0:3b:e4:
        80:b4:b4:ef:3a:9e:1e:93:3a:35:91:c6:dc:43:6a:97:56:7f:
        ab:e6:28:1e:b5:08:71:8f:42:80:35:da:0c:34:4a:76:56:82:
        73:bc:5b:03:83:35:67:64:51:84:77:2d:af:d8:e6:e1:18:ab:
        b4:98
-----BEGIN CERTIFICATE-----
MIICdjCCAd+gAwIBAgIBBjANBgkqhkiG9w0BAQQFADBfMQ0wCwYDVQQKEwRHcmlk
MRMwEQYDVQQLEwpHbG9idXNUZXN0MR4wHAYDVQQLExVzaW1wbGVDQS1tYWN0b3Au
bG9jYWwxGTAXBgNVBAMTEEdsb2J1cyBTaW1wbGUgQ0EwHhcNMDgwODIyMTc0ODE0
WhcNMDkwODIyMTc0ODE0WjBkMQ0wCwYDVQQKEwRHcmlkMRMwEQYDVQQLEwpHbG9i
dXNUZXN0MR4wHAYDVQQLExVzaW1wbGVDQS1tYWN0b3AubG9jYWwxHjAcBgNVBAMT
FWhvc3QvdGVzdC5leGFtcGxlLm9yZzCBnzANBgkqhkiG9w0BAQEFAAOBjQAwgYkC
gYEA0HpDbxONS1r+UExrJrgJWK44W8b1wXD1IHLlvBZODa1plfj1h1H4Ni3Lc4BV
2rM3IsqZIl/qGNMq5Wrpv8M0HPt8F3Ncw68KwfS/dflO7yJFfNl6jTor1pNeE3t2
be9awmGi8fUn1T/FtniRCjBQRdYyGS+wKtk9W5abfIh6FQsCAwEAAaM9MDswEQYJ
YIZIAYb4QgEBBAQDAgTwMBgGA1UdEQQRMA+CDSouZXhhbXBsZS5vcmcwDAYDVR0T
AQH/BAIwADANBgkqhkiG9w0BAQQFAAOBgQBcpdBgtLJouqp7W/SCqUEbLLTEpkr+
UFecGRke2s9sg/mApUYQ1asAPY62mMZYfdMym6+/fiVl5LERWWXHcbPjsTVT8F/w
O+SAtLTvOp4ekzo1kcbcQ2qXVn+r5igetQhxj0KANdoMNEp2VoJzvFsDgzVnZFGE
dy2v2ObhGKu0mA==
-----END CERTIFICATE-----
