Certificate:
    Data:
        Version: 3 (0x2)
        Serial Number: 5 (0x5)
        Signature Algorithm: md5WithRSAEncryption
        Issuer: O=Grid, OU=GlobusTest, OU=simpleCA-mactop.local, CN=Globus Simple CA
        Validity
            Not Before: Aug 22 17:47:59 2008 GMT
            Not After : Aug 22 17:47:59 2009 GMT
        Subject: O=Grid, OU=GlobusTest, OU=simpleCA-mactop.local, CN=host/test.example.org
        Subject Public Key Info:
            Public Key Algorithm: rsaEncryption
            RSA Public Key: (1024 bit)
                Modulus (1024 bit):
                    00:bb:5f:55:4b:37:e2:47:b0:d9:02:7b:4f:f0:4c:
                    62:7a:e7:8b:8f:5c:26:9e:1d:6e:89:5e:20:e4:ed:
                    24:ec:ab:53:9e:e6:b0:d1:9b:33:d4:c8:7d:ab:5a:
                    74:69:32:a7:4a:30:3a:53:1c:e9:c2:ad:31:8b:58:
                    8e:ae:84:72:dc:d0:63:3c:88:1c:18:f0:2f:48:a2:
                    0d:38:f9:26:3f:78:e2:98:96:51:3c:dd:f5:ef:e3:
                    cf:9d:43:2a:dd:18:c9:93:b3:60:30:ce:ae:56:d8:
                    a0:b5:dc:41:b8:de:45:fc:72:64:24:ac:85:44:08:
                    7b:d4:2f:57:35:d8:78:c1:d1
                Exponent: 65537 (0x10001)
        X509v3 extensions:
            Netscape Cert Type: 
                SSL Client, SSL Server, S/MIME, Object Signing
            X509v3 Subject Alternative Name: 
                DNS:test.example.org
            X509v3 Basic Constraints: critical
                CA:FALSE
    Signature Algorithm: md5WithRSAEncryption
        1d:c9:ba:14:13:f5:8b:73:42:c5:7d:ad:60:53:46:4a:06:26:
        aa:32:41:b5:7e:65:79:e0:5d:10:19:b6:c5:e9:fb:94:06:73:
        56:95:f7:a5:22:85:3e:ad:47:6d:9c:b1:04:27:8a:36:f8:b4:
        0b:a8:1d:29:b5:21:9d:c4:bb:f5:79:eb:b2:f2:f8:1d:d4:12:
        53:69:0d:e5:ed:9f:5c:2a:24:5a:3b:23:4d:d8:22:bd:da:c4:
        63:7e:95:17:5b:aa:88:67:f9:d8:c6:5a:f0:83:8b:b9:f8:23:
        67:df:da:3d:1d:ce:2a:38:a8:68:c6:e2:ef:02:95:30:05:cf:
        14:e3
-----BEGIN CERTIFICATE-----
MIICeTCCAeKgAwIBAgIBBTANBgkqhkiG9w0BAQQFADBfMQ0wCwYDVQQKEwRHcmlk
MRMwEQYDVQQLEwpHbG9idXNUZXN0MR4wHAYDVQQLExVzaW1wbGVDQS1tYWN0b3Au
bG9jYWwxGTAXBgNVBAMTEEdsb2J1cyBTaW1wbGUgQ0EwHhcNMDgwODIyMTc0NzU5
WhcNMDkwODIyMTc0NzU5WjBkMQ0wCwYDVQQKEwRHcmlkMRMwEQYDVQQLEwpHbG9i
dXNUZXN0MR4wHAYDVQQLExVzaW1wbGVDQS1tYWN0b3AubG9jYWwxHjAcBgNVBAMT
FWhvc3QvdGVzdC5leGFtcGxlLm9yZzCBnzANBgkqhkiG9w0BAQEFAAOBjQAwgYkC
gYEAu19VSzfiR7DZAntP8ExieueLj1wmnh1uiV4g5O0k7KtTnuaw0Zsz1Mh9q1p0
aTKnSjA6Uxzpwq0xi1iOroRy3NBjPIgcGPAvSKINOPkmP3jimJZRPN317+PPnUMq
3RjJk7NgMM6uVtigtdxBuN5F/HJkJKyFRAh71C9XNdh4wdECAwEAAaNAMD4wEQYJ
YIZIAYb4QgEBBAQDAgTwMBsGA1UdEQQUMBKCEHRlc3QuZXhhbXBsZS5vcmcwDAYD
VR0TAQH/BAIwADANBgkqhkiG9w0BAQQFAAOBgQAdyboUE/WLc0LFfa1gU0ZKBiaq
MkG1fmV54F0QGbbF6fuUBnNWlfelIoU+rUdtnLEEJ4o2+LQLqB0ptSGdxLv1eeuy
8vgd1BJTaQ3l7Z9cKiRaOyNN2CK92sRjfpUXW6qIZ/nYxlrwg4u5+CNn39o9Hc4q
OKhoxuLvApUwBc8U4w==
-----END CERTIFICATE-----
