Certificate:
    Data:
        Version: 3 (0x2)
        Serial Number: 1 (0x1)
        Signature Algorithm: md5WithRSAEncryption
        Issuer: C=US, ST=Some-State, O=Globus, CN=Test CA
        Validity
            Not Before: Jul 21 22:54:45 2001 GMT
            Not After : Jul 21 22:54:45 2002 GMT
        Subject: C=US, ST=Some-State, O=Globus, CN=Test Client
        Subject Public Key Info:
            Public Key Algorithm: rsaEncryption
            RSA Public Key: (1024 bit)
                Modulus (1024 bit):
                    00:b9:9a:fe:10:29:c6:ea:dd:53:7b:e6:80:6e:af:
                    2b:15:08:02:a0:55:82:51:b0:1f:d0:79:fd:c4:04:
                    c0:65:1f:c1:5c:36:69:2e:7d:01:bf:71:09:21:12:
                    49:62:d6:6b:46:92:a7:bc:1a:f4:7e:0e:58:c2:32:
                    58:a1:a0:fc:f5:56:00:17:b4:b9:8d:73:cb:11:33:
                    26:76:2a:45:b1:aa:39:68:db:ce:2f:be:8b:0c:42:
                    78:c9:c7:6e:54:29:87:6b:70:ad:4a:4e:fc:c8:c1:
                    a4:69:62:5e:ba:ba:67:29:ac:ae:35:14:7b:3f:b1:
                    3e:49:46:a6:3f:1b:b4:c1:ab
                Exponent: 65537 (0x10001)
        X509v3 extensions:
            X509v3 Basic Constraints: 
                CA:FALSE
            Netscape Comment: 
                OpenSSL Generated Certificate
            X509v3 Subject Key Identifier: 
                0C:63:F8:89:62:2C:51:83:5B:E7:87:E0:25:0D:2B:06:95:C7:12:55
            X509v3 Authority Key Identifier: 
                keyid:A5:DE:72:69:A1:4C:0E:36:FC:A3:BA:9E:3A:76:CE:CF:95:E1:61:EA
                DirName:/C=US/ST=Some-State/O=Globus/CN=Test CA
                serial:00

    Signature Algorithm: md5WithRSAEncryption
        be:dc:99:67:c1:d1:c5:97:69:9a:f0:83:89:76:4e:39:f3:19:
        58:92:d4:26:f4:b7:dd:34:d3:33:1a:a4:90:2a:ab:cf:5d:a6:
        ba:5e:87:eb:34:bf:a8:01:f7:ef:f2:af:9d:15:24:e7:41:3e:
        af:f0:4e:15:1f:b0:e7:d0:9b:d7:f7:95:13:ef:e1:f6:90:1e:
        61:ce:c8:64:4e:b9:b4:03:38:fc:54:96:76:84:6f:07:cf:10:
        6b:1f:15:6e:19:bb:b6:13:9c:d4:ab:5f:ac:e5:d9:db:86:76:
        ed:6d:f1:6d:44:fd:65:e8:19:1c:2e:a6:a5:22:e2:6d:a3:74:
        97:73
-----BEGIN CERTIFICATE-----
MIICzzCCAjigAwIBAgIBATANBgkqhkiG9w0BAQQFADBFMQswCQYDVQQGEwJVUzET
MBEGA1UECBMKU29tZS1TdGF0ZTEPMA0GA1UEChMGR2xvYnVzMRAwDgYDVQQDEwdU
ZXN0IENBMB4XDTAxMDcyMTIyNTQ0NVoXDTAyMDcyMTIyNTQ0NVowSTELMAkGA1UE
BhMCVVMxEzARBgNVBAgTClNvbWUtU3RhdGUxDzANBgNVBAoTBkdsb2J1czEUMBIG
A1UEAxMLVGVzdCBDbGllbnQwgZ8wDQYJKoZIhvcNAQEBBQADgY0AMIGJAoGBALma
/hApxurdU3vmgG6vKxUIAqBVglGwH9B5/cQEwGUfwVw2aS59Ab9xCSESSWLWa0aS
p7wa9H4OWMIyWKGg/PVWABe0uY1zyxEzJnYqRbGqOWjbzi++iwxCeMnHblQph2tw
rUpO/MjBpGliXrq6ZymsrjUUez+xPklGpj8btMGrAgMBAAGjgcowgccwCQYDVR0T
BAIwADAsBglghkgBhvhCAQ0EHxYdT3BlblNTTCBHZW5lcmF0ZWQgQ2VydGlmaWNh
dGUwHQYDVR0OBBYEFAxj+IliLFGDW+eH4CUNKwaVxxJVMG0GA1UdIwRmMGSAFKXe
cmmhTA42/KO6njp2zs+V4WHqoUmkRzBFMQswCQYDVQQGEwJVUzETMBEGA1UECBMK
U29tZS1TdGF0ZTEPMA0GA1UEChMGR2xvYnVzMRAwDgYDVQQDEwdUZXN0IENBggEA
MA0GCSqGSIb3DQEBBAUAA4GBAL7cmWfB0cWXaZrwg4l2TjnzGViS1Cb0t9000zMa
pJAqq89dprpeh+s0v6gB9+/yr50VJOdBPq/wThUfsOfQm9f3lRPv4faQHmHOyGRO
ubQDOPxUlnaEbwfPEGsfFW4Zu7YTnNSrX6zl2duGdu1t8W1E/WXoGRwupqUi4m2j
dJdz
-----END CERTIFICATE-----
