issuer :/C=US/O=Globus/CN=Test CA - Do not trust
subject:/C=US/O=Globus/CN=Test Client - Do not trust
serial :02

Certificate:
    Data:
        Version: 3 (0x2)
        Serial Number: 2 (0x2)
        Signature Algorithm: md5WithRSAEncryption
        Issuer: C=US, O=Globus, CN=Test CA - Do not trust
        Validity
            Not Before: Jul 23 21:32:57 1999 GMT
            Not After : Jul 22 21:32:57 2000 GMT
        Subject: C=US, O=Globus, CN=Test Client - Do not trust
        Subject Public Key Info:
            Public Key Algorithm: rsaEncryption
            RSA Public Key: (1024 bit)
                Modulus (1024 bit):
                    00:d6:51:ac:f7:8b:26:ae:1e:b3:12:d0:94:fb:0f:
                    da:7a:5a:ab:e5:92:5d:5b:d2:b3:fe:cd:b3:14:02:
                    65:a5:79:49:38:bc:a5:ae:4f:07:f5:3b:ed:f5:58:
                    a8:6b:e4:ef:c4:38:01:a8:9c:9c:3d:97:8d:f9:61:
                    8e:39:e5:af:83:15:8c:7f:5c:c8:23:a0:b0:04:b8:
                    44:cd:0b:b3:e5:1f:a8:d3:a9:89:7b:ee:8d:1d:0a:
                    05:e2:cf:9e:a6:c9:e8:d0:8b:5f:5f:41:aa:ed:d3:
                    89:20:b2:39:63:7e:e1:e0:df:ae:66:bf:bb:5e:0e:
                    03:cd:a2:c9:d8:4d:6e:27:df
                Exponent: 65537 (0x10001)
        X509v3 extensions:
            Netscape CA Revocation Url: 
                http://www.cryptsoft.com/ca-crl.pem
            Netscape Comment: 
                This is a comment
    Signature Algorithm: md5WithRSAEncryption
        59:70:2f:4a:50:8f:98:6e:1b:3f:c8:66:b0:9a:1e:c5:98:43:
        e9:11:e1:74:c9:20:ba:16:6f:b9:08:a5:f3:47:31:b3:d3:39:
        57:2f:1a:b6:7f:cb:95:e4:95:7c:9f:3b:d8:5a:23:04:f9:df:
        7f:b2:6b:81:bb:84:a5:9a:cc:a9:56:93:2a:0b:fa:cd:ad:9e:
        7d:b8:e2:db:ac:da:53:19:76:17:01:55:29:1c:00:d6:cd:11:
        b3:8e:2c:cb:37:58:ca:d2:75:5b:f7:2a:69:f2:de:58:bb:24:
        d7:ff:1c:13:83:ca:87:84:e0:c2:2c:f7:36:4a:ef:27:e4:22:
        98:d0

-----BEGIN CERTIFICATE-----
MIICUDCCAbmgAwIBAgIBAjANBgkqhkiG9w0BAQQFADA/MQswCQYDVQQGEwJVUzEP
MA0GA1UEChMGR2xvYnVzMR8wHQYDVQQDExZUZXN0IENBIC0gRG8gbm90IHRydXN0
MB4XDTk5MDcyMzIxMzI1N1oXDTAwMDcyMjIxMzI1N1owQzELMAkGA1UEBhMCVVMx
DzANBgNVBAoTBkdsb2J1czEjMCEGA1UEAxMaVGVzdCBDbGllbnQgLSBEbyBub3Qg
dHJ1c3QwgZ8wDQYJKoZIhvcNAQEBBQADgY0AMIGJAoGBANZRrPeLJq4esxLQlPsP
2npaq+WSXVvSs/7NsxQCZaV5STi8pa5PB/U77fVYqGvk78Q4AaicnD2Xjflhjjnl
r4MVjH9cyCOgsAS4RM0Ls+UfqNOpiXvujR0KBeLPnqbJ6NCLX19Bqu3TiSCyOWN+
4eDfrma/u14OA82iydhNbiffAgMBAAGjWDBWMDIGCWCGSAGG+EIBBAQlFiNodHRw
Oi8vd3d3LmNyeXB0c29mdC5jb20vY2EtY3JsLnBlbTAgBglghkgBhvhCAQ0EExYR
VGhpcyBpcyBhIGNvbW1lbnQwDQYJKoZIhvcNAQEEBQADgYEAWXAvSlCPmG4bP8hm
sJoexZhD6RHhdMkguhZvuQil80cxs9M5Vy8atn/LleSVfJ872FojBPnff7JrgbuE
pZrMqVaTKgv6za2efbji26zaUxl2FwFVKRwA1s0Rs44syzdYytJ1W/cqafLeWLsk
1/8cE4PKh4Tgwiz3NkrvJ+QimNA=
-----END CERTIFICATE-----

