Certificate:
    Data:
        Version: 3 (0x2)
        Serial Number: 2 (0x2)
        Signature Algorithm: md5WithRSAEncryption
        Issuer: C=US, ST=Some-State, O=Globus, CN=Test CA
        Validity
            Not Before: Jul 21 23:00:12 2001 GMT
            Not After : Jul 21 23:00:12 2002 GMT
        Subject: C=US, ST=Some-State, O=Globus, CN=Test Server
        Subject Public Key Info:
            Public Key Algorithm: rsaEncryption
            RSA Public Key: (1024 bit)
                Modulus (1024 bit):
                    00:d3:81:8b:fd:5e:7a:a4:a5:13:63:5c:00:0d:44:
                    72:5c:7e:eb:1d:62:84:82:8c:cb:b0:82:32:dc:a6:
                    ad:df:8c:a3:66:2a:9e:10:02:9e:1d:81:5a:d1:a5:
                    44:3c:9f:bf:96:f5:a6:4a:67:a7:7f:34:13:24:cf:
                    69:a0:55:de:f5:5c:29:47:46:88:19:07:5f:e8:8d:
                    56:b1:70:62:a6:44:b8:bf:3c:c5:b2:c9:4e:39:f8:
                    3a:fa:57:0f:3b:72:96:a1:28:be:14:a2:cf:47:70:
                    23:fa:cb:45:30:df:14:af:45:26:7c:f0:08:50:b4:
                    ca:1b:00:a2:1b:69:1e:c0:fb
                Exponent: 65537 (0x10001)
        X509v3 extensions:
            X509v3 Basic Constraints: 
                CA:FALSE
            Netscape Comment: 
                OpenSSL Generated Certificate
            X509v3 Subject Key Identifier: 
                09:97:16:A0:F9:4D:02:D9:47:C1:02:C4:59:E6:23:15:B1:7F:DD:5C
            X509v3 Authority Key Identifier: 
                keyid:A5:DE:72:69:A1:4C:0E:36:FC:A3:BA:9E:3A:76:CE:CF:95:E1:61:EA
                DirName:/C=US/ST=Some-State/O=Globus/CN=Test CA
                serial:00

    Signature Algorithm: md5WithRSAEncryption
        83:fd:9c:55:ba:a2:be:5c:53:15:b5:c9:a5:c2:a2:11:bd:c3:
        5a:20:dc:44:a3:a7:99:35:45:32:96:8c:39:ad:08:35:08:cb:
        8f:90:24:5e:61:fb:c6:35:6b:89:65:2f:a0:0e:9a:f4:7a:36:
        fc:13:c6:0a:83:49:b9:54:1b:3f:fd:da:b0:50:ec:5c:de:d4:
        66:3c:ae:94:6c:a5:5e:62:77:aa:90:e4:94:82:97:64:be:25:
        36:d0:c9:ad:82:17:51:cd:c1:ee:b4:b4:d9:3f:cb:b0:c0:18:
        27:5d:07:8a:d9:18:ad:41:48:48:bf:dc:42:01:23:ab:dd:14:
        48:71
-----BEGIN CERTIFICATE-----
MIICzzCCAjigAwIBAgIBAjANBgkqhkiG9w0BAQQFADBFMQswCQYDVQQGEwJVUzET
MBEGA1UECBMKU29tZS1TdGF0ZTEPMA0GA1UEChMGR2xvYnVzMRAwDgYDVQQDEwdU
ZXN0IENBMB4XDTAxMDcyMTIzMDAxMloXDTAyMDcyMTIzMDAxMlowSTELMAkGA1UE
BhMCVVMxEzARBgNVBAgTClNvbWUtU3RhdGUxDzANBgNVBAoTBkdsb2J1czEUMBIG
A1UEAxMLVGVzdCBTZXJ2ZXIwgZ8wDQYJKoZIhvcNAQEBBQADgY0AMIGJAoGBANOB
i/1eeqSlE2NcAA1Eclx+6x1ihIKMy7CCMtymrd+Mo2YqnhACnh2BWtGlRDyfv5b1
pkpnp380EyTPaaBV3vVcKUdGiBkHX+iNVrFwYqZEuL88xbLJTjn4OvpXDztylqEo
vhSiz0dwI/rLRTDfFK9FJnzwCFC0yhsAohtpHsD7AgMBAAGjgcowgccwCQYDVR0T
BAIwADAsBglghkgBhvhCAQ0EHxYdT3BlblNTTCBHZW5lcmF0ZWQgQ2VydGlmaWNh
dGUwHQYDVR0OBBYEFAmXFqD5TQLZR8ECxFnmIxWxf91cMG0GA1UdIwRmMGSAFKXe
cmmhTA42/KO6njp2zs+V4WHqoUmkRzBFMQswCQYDVQQGEwJVUzETMBEGA1UECBMK
U29tZS1TdGF0ZTEPMA0GA1UEChMGR2xvYnVzMRAwDgYDVQQDEwdUZXN0IENBggEA
MA0GCSqGSIb3DQEBBAUAA4GBAIP9nFW6or5cUxW1yaXCohG9w1og3ESjp5k1RTKW
jDmtCDUIy4+QJF5h+8Y1a4llL6AOmvR6NvwTxgqDSblUGz/92rBQ7Fze1GY8rpRs
pV5id6qQ5JSCl2S+JTbQya2CF1HNwe60tNk/y7DAGCddB4rZGK1BSEi/3EIBI6vd
FEhx
-----END CERTIFICATE-----
