issuer :/C=US/O=Globus/CN=Test CA - Do not trust
subject:/C=US/O=Globus/CN=Test Server
serial :01

Certificate:
    Data:
        Version: 3 (0x2)
        Serial Number: 1 (0x1)
        Signature Algorithm: md5WithRSAEncryption
        Issuer: C=US, O=Globus, CN=Test CA - Do not trust
        Validity
            Not Before: Jul 23 21:25:29 1999 GMT
            Not After : Jul 22 21:25:29 2000 GMT
        Subject: C=US, O=Globus, CN=Test Server
        Subject Public Key Info:
            Public Key Algorithm: rsaEncryption
            RSA Public Key: (1024 bit)
                Modulus (1024 bit):
                    00:ef:e5:3d:48:24:a4:a7:5d:34:df:1f:c6:98:be:
                    3b:77:fe:ec:d2:ef:22:16:2c:62:0e:c9:5a:69:b9:
                    56:52:e9:1b:63:17:01:be:12:c9:92:40:78:67:8f:
                    a5:43:9e:ed:c8:59:77:32:2e:e7:6e:c0:68:16:44:
                    d7:c5:df:61:34:30:17:81:13:12:33:e7:16:ff:e9:
                    cb:79:8c:4c:72:76:b1:24:e5:0f:bd:f3:1c:8c:ea:
                    13:c6:bc:57:2d:4e:97:13:cd:e8:c4:64:53:e8:2e:
                    e9:48:4d:54:9f:79:2b:67:cc:f5:ec:92:12:2b:06:
                    33:c8:29:b7:b5:ea:34:81:b3
                Exponent: 65537 (0x10001)
        X509v3 extensions:
            Netscape CA Revocation Url: 
                http://www.cryptsoft.com/ca-crl.pem
            Netscape Comment: 
                This is a comment
    Signature Algorithm: md5WithRSAEncryption
        0e:aa:cb:6b:1e:ee:89:d8:7e:0b:1a:02:f5:4c:d3:0e:e1:40:
        8f:9c:0e:72:73:6b:63:96:6a:e6:b3:6d:3c:d9:81:94:5f:82:
        c2:b8:6b:7e:29:97:5f:18:c6:22:02:0e:88:c4:43:a7:dc:1e:
        a1:35:54:e8:d2:07:a9:75:f6:dc:f2:9f:af:9f:d6:a9:ef:cd:
        e2:45:c1:df:35:db:fd:01:08:08:a4:e0:16:fe:9d:c5:b7:4a:
        1e:de:aa:c1:7a:ef:cf:f8:e9:3b:c6:35:cd:6e:6a:4b:fc:07:
        01:04:f0:37:24:dd:d8:19:ed:a0:f0:de:53:d4:da:b0:00:8c:
        b6:b5

-----BEGIN CERTIFICATE-----
MIICQTCCAaqgAwIBAgIBATANBgkqhkiG9w0BAQQFADA/MQswCQYDVQQGEwJVUzEP
MA0GA1UEChMGR2xvYnVzMR8wHQYDVQQDExZUZXN0IENBIC0gRG8gbm90IHRydXN0
MB4XDTk5MDcyMzIxMjUyOVoXDTAwMDcyMjIxMjUyOVowNDELMAkGA1UEBhMCVVMx
DzANBgNVBAoTBkdsb2J1czEUMBIGA1UEAxMLVGVzdCBTZXJ2ZXIwgZ8wDQYJKoZI
hvcNAQEBBQADgY0AMIGJAoGBAO/lPUgkpKddNN8fxpi+O3f+7NLvIhYsYg7JWmm5
VlLpG2MXAb4SyZJAeGePpUOe7chZdzIu527AaBZE18XfYTQwF4ETEjPnFv/py3mM
THJ2sSTlD73zHIzqE8a8Vy1OlxPN6MRkU+gu6UhNVJ95K2fM9eySEisGM8gpt7Xq
NIGzAgMBAAGjWDBWMDIGCWCGSAGG+EIBBAQlFiNodHRwOi8vd3d3LmNyeXB0c29m
dC5jb20vY2EtY3JsLnBlbTAgBglghkgBhvhCAQ0EExYRVGhpcyBpcyBhIGNvbW1l
bnQwDQYJKoZIhvcNAQEEBQADgYEADqrLax7uidh+CxoC9UzTDuFAj5wOcnNrY5Zq
5rNtPNmBlF+CwrhrfimXXxjGIgIOiMRDp9weoTVU6NIHqXX23PKfr5/Wqe/N4kXB
3zXb/QEICKTgFv6dxbdKHt6qwXrvz/jpO8Y1zW5qS/wHAQTwNyTd2BntoPDeU9Ta
sACMtrU=
-----END CERTIFICATE-----

